; Function Attrs: mustprogress ssp uwtable
define void @_ZN6open3d4core22MemoryManagerStatistic5ResetEv(ptr noundef nonnull align 8 dereferenceable(96) %0) local_unnamed_addr #0 align 2 personality ptr @__gxx_personality_v0 {
  %2 = getelementptr inbounds nuw i8, ptr %0, i64 8
  %3 = tail call noundef i32 @pthread_mutex_lock(ptr noundef nonnull align 8 dereferenceable(40) %2) #33
  %.not.i.i = icmp eq i32 %3, 0
  br i1 %.not.i.i, label %_ZNSt10lock_guardISt5mutexEC2ERS0_.exit, label %4

4:                                                ; preds = %1
  tail call void @_ZSt20__throw_system_errori(i32 noundef %3) #38
  unreachable

_ZNSt10lock_guardISt5mutexEC2ERS0_.exit:          ; preds = %1
  %5 = getelementptr inbounds nuw i8, ptr %0, i64 48
  %6 = getelementptr inbounds nuw i8, ptr %0, i64 64
  %7 = load ptr, ptr %6, align 8, !tbaa !27
  invoke void @_ZNSt8_Rb_treeIN6open3d4core6DeviceESt4pairIKS2_NS1_22MemoryManagerStatistic16MemoryStatisticsEESt10_Select1stIS7_ESt4lessIS2_ESaIS7_EE8_M_eraseEPSt13_Rb_tree_nodeIS7_E(ptr noundef nonnull align 8 dereferenceable(48) %5, ptr noundef %7)
          to label %_ZNSt3mapIN6open3d4core6DeviceENS1_22MemoryManagerStatistic16MemoryStatisticsESt4lessIS2_ESaISt4pairIKS2_S4_EEE5clearEv.exit unwind label %8

8:                                                ; preds = %_ZNSt10lock_guardISt5mutexEC2ERS0_.exit
  %9 = landingpad { ptr, i32 }
          catch ptr null
  %10 = extractvalue { ptr, i32 } %9, 0
  tail call void @__clang_call_terminate(ptr %10) #34
  unreachable

_ZNSt3mapIN6open3d4core6DeviceENS1_22MemoryManagerStatistic16MemoryStatisticsESt4lessIS2_ESaISt4pairIKS2_S4_EEE5clearEv.exit: ; preds = %_ZNSt10lock_guardISt5mutexEC2ERS0_.exit
  %11 = getelementptr inbounds nuw i8, ptr %0, i64 56
  store ptr null, ptr %6, align 8, !tbaa !27
  %12 = getelementptr inbounds nuw i8, ptr %0, i64 72
  store ptr %11, ptr %12, align 8, !tbaa !28
  %13 = getelementptr inbounds nuw i8, ptr %0, i64 80
  store ptr %11, ptr %13, align 8, !tbaa !29
  %14 = getelementptr inbounds nuw i8, ptr %0, i64 88
  store i64 0, ptr %14, align 8, !tbaa !30
  %15 = tail call noundef i32 @pthread_mutex_unlock(ptr noundef nonnull align 8 dereferenceable(40) %2) #33
  ret void
}